target datalayout = "e-m:e-p270:32:32-p271:32:32-p272:64:64-i64:64-i128:128-f80:128-n8:16:32:64-S128"
target triple = "x86_64-pc-linux-gnu"

%"class.std::basic_string_view" = type { i64, ptr }
%"class.absl::substitute_internal::Arg" = type { %"class.std::basic_string_view", [32 x i8] }
%"struct.absl::Hex" = type <{ i64, i8, i8, [6 x i8] }>

@_ZN4absl16numbers_internal8kHexCharE = external constant [17 x i8], align 16

; Function Attrs: inlinehint mustprogress nounwind uwtable
define linkonce_odr dso_local void @_ZSt9__fill_a1IcEN9__gnu_cxx11__enable_ifIXsr9__is_byteIT_EE7__valueEvE6__typeEPS2_S5_RKS2_(ptr noundef %0, ptr noundef %1, ptr noundef nonnull align 1 dereferenceable(1) %2) #3 comdat {
  %4 = alloca ptr, align 8
  %5 = alloca ptr, align 8
  %6 = alloca ptr, align 8
  %7 = alloca i8, align 1
  %8 = alloca i64, align 8
  store ptr %0, ptr %4, align 8, !tbaa !18
  store ptr %1, ptr %5, align 8, !tbaa !18
  store ptr %2, ptr %6, align 8, !tbaa !18
  call void @llvm.lifetime.start.p0(i64 1, ptr %7) #14
  %9 = load ptr, ptr %6, align 8, !tbaa !18
  %10 = load i8, ptr %9, align 1, !tbaa !13
  store i8 %10, ptr %7, align 1, !tbaa !13
  call void @llvm.lifetime.start.p0(i64 8, ptr %8) #14
  %11 = load ptr, ptr %5, align 8, !tbaa !18
  %12 = load ptr, ptr %4, align 8, !tbaa !18
  %13 = ptrtoint ptr %11 to i64
  %14 = ptrtoint ptr %12 to i64
  %15 = sub i64 %13, %14
  store i64 %15, ptr %8, align 8, !tbaa !11
  %16 = load i64, ptr %8, align 8, !tbaa !11
  %17 = icmp ne i64 %16, 0
  br i1 %17, label %18, label %24

18:                                               ; preds = %3
  %19 = load ptr, ptr %4, align 8, !tbaa !18
  %20 = load i8, ptr %7, align 1, !tbaa !13
  %21 = zext i8 %20 to i32
  %22 = trunc i32 %21 to i8
  %23 = load i64, ptr %8, align 8, !tbaa !11
  call void @llvm.memset.p0.i64(ptr align 1 %19, i8 %22, i64 %23, i1 false)
  br label %24

24:                                               ; preds = %18, %3
  call void @llvm.lifetime.end.p0(i64 8, ptr %8) #14
  call void @llvm.lifetime.end.p0(i64 1, ptr %7) #14
  ret void
}

; Function Attrs: inlinehint mustprogress uwtable
define linkonce_odr dso_local void @_ZSt8__fill_aIPccEvT_S1_RKT0_(ptr noundef %0, ptr noundef %1, ptr noundef nonnull align 1 dereferenceable(1) %2) #6 comdat {
  %4 = alloca ptr, align 8
  %5 = alloca ptr, align 8
  %6 = alloca ptr, align 8
  store ptr %0, ptr %4, align 8, !tbaa !18
  store ptr %1, ptr %5, align 8, !tbaa !18
  store ptr %2, ptr %6, align 8, !tbaa !18
  %7 = load ptr, ptr %4, align 8, !tbaa !18
  %8 = load ptr, ptr %5, align 8, !tbaa !18
  %9 = load ptr, ptr %6, align 8, !tbaa !18
  call void @_ZSt9__fill_a1IcEN9__gnu_cxx11__enable_ifIXsr9__is_byteIT_EE7__valueEvE6__typeEPS2_S5_RKS2_(ptr noundef %7, ptr noundef %8, ptr noundef nonnull align 1 dereferenceable(1) %9)
  ret void
}

; Function Attrs: inlinehint mustprogress uwtable
define linkonce_odr dso_local noundef ptr @_ZSt10__fill_n_aIPclcET_S1_T0_RKT1_St26random_access_iterator_tag(ptr noundef %0, i64 noundef %1, ptr noundef nonnull align 1 dereferenceable(1) %2) #6 comdat {
  %4 = alloca ptr, align 8
  %5 = alloca ptr, align 8
  %6 = alloca i64, align 8
  %7 = alloca ptr, align 8
  store ptr %0, ptr %5, align 8, !tbaa !18
  store i64 %1, ptr %6, align 8, !tbaa !11
  store ptr %2, ptr %7, align 8, !tbaa !18
  %8 = load i64, ptr %6, align 8, !tbaa !11
  %9 = icmp sle i64 %8, 0
  br i1 %9, label %10, label %12

10:                                               ; preds = %3
  %11 = load ptr, ptr %5, align 8, !tbaa !18
  store ptr %11, ptr %4, align 8
  br label %21

12:                                               ; preds = %3
  %13 = load ptr, ptr %5, align 8, !tbaa !18
  %14 = load ptr, ptr %5, align 8, !tbaa !18
  %15 = load i64, ptr %6, align 8, !tbaa !11
  %16 = getelementptr inbounds i8, ptr %14, i64 %15
  %17 = load ptr, ptr %7, align 8, !tbaa !18
  call void @_ZSt8__fill_aIPccEvT_S1_RKT0_(ptr noundef %13, ptr noundef %16, ptr noundef nonnull align 1 dereferenceable(1) %17)
  %18 = load ptr, ptr %5, align 8, !tbaa !18
  %19 = load i64, ptr %6, align 8, !tbaa !11
  %20 = getelementptr inbounds i8, ptr %18, i64 %19
  store ptr %20, ptr %4, align 8
  br label %21

21:                                               ; preds = %12, %10
  %22 = load ptr, ptr %4, align 8
  ret ptr %22
}

; Function Attrs: inlinehint mustprogress nounwind uwtable
define linkonce_odr dso_local void @_ZSt19__iterator_categoryIPcENSt15iterator_traitsIT_E17iterator_categoryERKS2_(ptr noundef nonnull align 8 dereferenceable(8) %0) #3 comdat {
  %2 = alloca ptr, align 8
  store ptr %0, ptr %2, align 8, !tbaa !35
  ret void
}

; Function Attrs: inlinehint mustprogress nounwind uwtable
define linkonce_odr dso_local noundef i64 @_ZSt17__size_to_integerl(i64 noundef %0) #3 comdat {
  %2 = alloca i64, align 8
  store i64 %0, ptr %2, align 8, !tbaa !11
  %3 = load i64, ptr %2, align 8, !tbaa !11
  ret i64 %3
}

; Function Attrs: mustprogress nounwind uwtable
define linkonce_odr dso_local void @_ZNSt17basic_string_viewIcSt11char_traitsIcEEC2EPKcm(ptr noundef nonnull align 8 dereferenceable(16) %0, ptr noundef %1, i64 noundef %2) unnamed_addr #2 comdat align 2 {
  %4 = alloca ptr, align 8
  %5 = alloca ptr, align 8
  %6 = alloca i64, align 8
  store ptr %0, ptr %4, align 8, !tbaa !9
  store ptr %1, ptr %5, align 8, !tbaa !18
  store i64 %2, ptr %6, align 8, !tbaa !11
  %7 = load ptr, ptr %4, align 8
  %8 = getelementptr inbounds nuw %"class.std::basic_string_view", ptr %7, i32 0, i32 0
  %9 = load i64, ptr %6, align 8, !tbaa !11
  store i64 %9, ptr %8, align 8, !tbaa !24
  %10 = getelementptr inbounds nuw %"class.std::basic_string_view", ptr %7, i32 0, i32 1
  %11 = load ptr, ptr %5, align 8, !tbaa !18
  store ptr %11, ptr %10, align 8, !tbaa !26
  ret void
}

; Function Attrs: inlinehint mustprogress uwtable
define linkonce_odr dso_local noundef ptr @_ZSt6fill_nIPclcET_S1_T0_RKT1_(ptr noundef %0, i64 noundef %1, ptr noundef nonnull align 1 dereferenceable(1) %2) #6 comdat {
  %4 = alloca ptr, align 8
  %5 = alloca i64, align 8
  %6 = alloca ptr, align 8
  store ptr %0, ptr %4, align 8, !tbaa !18
  store i64 %1, ptr %5, align 8, !tbaa !11
  store ptr %2, ptr %6, align 8, !tbaa !18
  %7 = load ptr, ptr %4, align 8, !tbaa !18
  %8 = load i64, ptr %5, align 8, !tbaa !11
  %9 = call noundef i64 @_ZSt17__size_to_integerl(i64 noundef %8)
  %10 = load ptr, ptr %6, align 8, !tbaa !18
  call void @_ZSt19__iterator_categoryIPcENSt15iterator_traitsIT_E17iterator_categoryERKS2_(ptr noundef nonnull align 8 dereferenceable(8) %4)
  %11 = call noundef ptr @_ZSt10__fill_n_aIPclcET_S1_T0_RKT1_St26random_access_iterator_tag(ptr noundef %7, i64 noundef %9, ptr noundef nonnull align 1 dereferenceable(1) %10)
  ret ptr %11
}

; Function Attrs: mustprogress nounwind uwtable
define linkonce_odr dso_local void @_ZNSt17basic_string_viewIcSt11char_traitsIcEEC2Ev(ptr noundef nonnull align 8 dereferenceable(16) %0) unnamed_addr #2 comdat align 2 {
  %2 = alloca ptr, align 8
  store ptr %0, ptr %2, align 8, !tbaa !9
  %3 = load ptr, ptr %2, align 8
  %4 = getelementptr inbounds nuw %"class.std::basic_string_view", ptr %3, i32 0, i32 0
  store i64 0, ptr %4, align 8, !tbaa !24
  %5 = getelementptr inbounds nuw %"class.std::basic_string_view", ptr %3, i32 0, i32 1
  store ptr null, ptr %5, align 8, !tbaa !26
  ret void
}

; Function Attrs: mustprogress uwtable
define dso_local void @_ZN4absl19substitute_internal3ArgC2ENS_3HexE(ptr noundef nonnull align 8 dereferenceable(48) %0, i64 %1, i64 %2) unnamed_addr #0 align 2 {
  %4 = alloca %"struct.absl::Hex", align 8
  %5 = alloca ptr, align 8
  %6 = alloca ptr, align 8
  %7 = alloca ptr, align 8
  %8 = alloca i64, align 8
  %9 = alloca ptr, align 8
  %10 = alloca %"class.std::basic_string_view", align 8
  %11 = getelementptr inbounds nuw { i64, i64 }, ptr %4, i32 0, i32 0
  store i64 %1, ptr %11, align 8
  %12 = getelementptr inbounds nuw { i64, i64 }, ptr %4, i32 0, i32 1
  store i64 %2, ptr %12, align 8
  store ptr %0, ptr %5, align 8, !tbaa !39
  %13 = load ptr, ptr %5, align 8
  %14 = getelementptr inbounds nuw %"class.absl::substitute_internal::Arg", ptr %13, i32 0, i32 0
  call void @_ZNSt17basic_string_viewIcSt11char_traitsIcEEC2Ev(ptr noundef nonnull align 8 dereferenceable(16) %14) #14
  call void @llvm.lifetime.start.p0(i64 8, ptr %6) #14
  %15 = getelementptr inbounds nuw %"class.absl::substitute_internal::Arg", ptr %13, i32 0, i32 1
  %16 = getelementptr inbounds [32 x i8], ptr %15, i64 0, i64 32
  store ptr %16, ptr %6, align 8, !tbaa !18
  call void @llvm.lifetime.start.p0(i64 8, ptr %7) #14
  %17 = load ptr, ptr %6, align 8, !tbaa !18
  store ptr %17, ptr %7, align 8, !tbaa !18
  call void @llvm.lifetime.start.p0(i64 8, ptr %8) #14
  %18 = getelementptr inbounds nuw %"struct.absl::Hex", ptr %4, i32 0, i32 0
  %19 = load i64, ptr %18, align 8, !tbaa !42
  store i64 %19, ptr %8, align 8, !tbaa !11
  br label %20

20:                                               ; preds = %29, %3
  %21 = load i64, ptr %8, align 8, !tbaa !11
  %22 = and i64 %21, 15
  %23 = getelementptr inbounds nuw [17 x i8], ptr @_ZN4absl16numbers_internal8kHexCharE, i64 0, i64 %22
  %24 = load i8, ptr %23, align 1, !tbaa !13
  %25 = load ptr, ptr %7, align 8, !tbaa !18
  %26 = getelementptr inbounds i8, ptr %25, i32 -1
  store ptr %26, ptr %7, align 8, !tbaa !18
  store i8 %24, ptr %26, align 1, !tbaa !13
  %27 = load i64, ptr %8, align 8, !tbaa !11
  %28 = lshr i64 %27, 4
  store i64 %28, ptr %8, align 8, !tbaa !11
  br label %29

29:                                               ; preds = %20
  %30 = load i64, ptr %8, align 8, !tbaa !11
  %31 = icmp ne i64 %30, 0
  br i1 %31, label %20, label %32, !llvm.loop !44

32:                                               ; preds = %29
  call void @llvm.lifetime.start.p0(i64 8, ptr %9) #14
  %33 = load ptr, ptr %6, align 8, !tbaa !18
  %34 = load ptr, ptr %7, align 8, !tbaa !18
  %35 = ptrtoint ptr %33 to i64
  %36 = ptrtoint ptr %34 to i64
  %37 = sub i64 %35, %36
  %38 = getelementptr inbounds nuw %"struct.absl::Hex", ptr %4, i32 0, i32 1
  %39 = load i8, ptr %38, align 8, !tbaa !45
  %40 = zext i8 %39 to i64
  %41 = icmp slt i64 %37, %40
  br i1 %41, label %42, label %58

42:                                               ; preds = %32
  %43 = load ptr, ptr %6, align 8, !tbaa !18
  %44 = getelementptr inbounds nuw %"struct.absl::Hex", ptr %4, i32 0, i32 1
  %45 = load i8, ptr %44, align 8, !tbaa !45
  %46 = zext i8 %45 to i32
  %47 = sext i32 %46 to i64
  %48 = sub i64 0, %47
  %49 = getelementptr inbounds i8, ptr %43, i64 %48
  store ptr %49, ptr %9, align 8, !tbaa !18
  %50 = load ptr, ptr %9, align 8, !tbaa !18
  %51 = load ptr, ptr %7, align 8, !tbaa !18
  %52 = load ptr, ptr %9, align 8, !tbaa !18
  %53 = ptrtoint ptr %51 to i64
  %54 = ptrtoint ptr %52 to i64
  %55 = sub i64 %53, %54
  %56 = getelementptr inbounds nuw %"struct.absl::Hex", ptr %4, i32 0, i32 2
  %57 = call noundef ptr @_ZSt6fill_nIPclcET_S1_T0_RKT1_(ptr noundef %50, i64 noundef %55, ptr noundef nonnull align 1 dereferenceable(1) %56)
  br label %60

58:                                               ; preds = %32
  %59 = load ptr, ptr %7, align 8, !tbaa !18
  store ptr %59, ptr %9, align 8, !tbaa !18
  br label %60

60:                                               ; preds = %58, %42
  call void @llvm.lifetime.start.p0(i64 16, ptr %10) #14
  %61 = load ptr, ptr %9, align 8, !tbaa !18
  %62 = load ptr, ptr %6, align 8, !tbaa !18
  %63 = load ptr, ptr %9, align 8, !tbaa !18
  %64 = ptrtoint ptr %62 to i64
  %65 = ptrtoint ptr %63 to i64
  %66 = sub i64 %64, %65
  call void @_ZNSt17basic_string_viewIcSt11char_traitsIcEEC2EPKcm(ptr noundef nonnull align 8 dereferenceable(16) %10, ptr noundef %61, i64 noundef %66) #14
  %67 = getelementptr inbounds nuw %"class.absl::substitute_internal::Arg", ptr %13, i32 0, i32 0
  call void @llvm.memcpy.p0.p0.i64(ptr align 8 %67, ptr align 8 %10, i64 16, i1 false), !tbaa.struct !22
  call void @llvm.lifetime.end.p0(i64 16, ptr %10) #14
  call void @llvm.lifetime.end.p0(i64 8, ptr %9) #14
  call void @llvm.lifetime.end.p0(i64 8, ptr %8) #14
  call void @llvm.lifetime.end.p0(i64 8, ptr %7) #14
  call void @llvm.lifetime.end.p0(i64 8, ptr %6) #14
  ret void
}