; Function Attrs: mustprogress nofree norecurse nosync nounwind memory(argmem: write) uwtable
define dso_local void @_ZN4absl19substitute_internal3ArgC2ENS_3HexE(ptr noundef nonnull align 8 dereferenceable(48) %0, i64 %1, i64 %2) unnamed_addr #3 align 2 {
  %.sroa.418.8.extract.shift = lshr i64 %2, 8
  %4 = getelementptr inbounds nuw i8, ptr %0, i64 48
  br label %5

5:                                                ; preds = %5, %3
  %.016 = phi ptr [ %4, %3 ], [ %9, %5 ]
  %.015 = phi i64 [ %1, %3 ], [ %10, %5 ]
  %6 = and i64 %.015, 15
  %7 = getelementptr inbounds nuw [17 x i8], ptr @_ZN4absl16numbers_internal8kHexCharE, i64 0, i64 %6
  %8 = load i8, ptr %7, align 1, !tbaa !4
  %9 = getelementptr inbounds i8, ptr %.016, i64 -1
  store i8 %8, ptr %9, align 1, !tbaa !4
  %10 = lshr i64 %.015, 4
  %.not = icmp ult i64 %.015, 16
  br i1 %.not, label %11, label %5, !llvm.loop !24

11:                                               ; preds = %5
  %.sroa.418.8.extract.trunc = trunc i64 %.sroa.418.8.extract.shift to i8
  %12 = ptrtoint ptr %4 to i64
  %13 = ptrtoint ptr %9 to i64
  %14 = sub i64 %12, %13
  %15 = and i64 %2, 255
  %16 = icmp slt i64 %14, %15
  br i1 %16, label %17, label %_ZSt6fill_nIPclcET_S1_T0_RKT1_.exit

17:                                               ; preds = %11
  %18 = sub nsw i64 0, %15
  %19 = getelementptr inbounds i8, ptr %4, i64 %18
  %20 = ptrtoint ptr %19 to i64
  %21 = sub i64 %13, %20
  %22 = icmp slt i64 %21, 1
  br i1 %22, label %_ZSt6fill_nIPclcET_S1_T0_RKT1_.exit, label %23

23:                                               ; preds = %17
  tail call void @llvm.memset.p0.i64(ptr nonnull align 1 %19, i8 %.sroa.418.8.extract.trunc, i64 %21, i1 false)
  br label %_ZSt6fill_nIPclcET_S1_T0_RKT1_.exit

_ZSt6fill_nIPclcET_S1_T0_RKT1_.exit:              ; preds = %23, %17, %11
  %.pre-phi = phi i64 [ %20, %23 ], [ %20, %17 ], [ %13, %11 ]
  %.0 = phi ptr [ %19, %23 ], [ %19, %17 ], [ %9, %11 ]
  %24 = sub i64 %12, %.pre-phi
  store i64 %24, ptr %0, align 8, !tbaa !19
  %.sroa.4.0..sroa_idx = getelementptr inbounds nuw i8, ptr %0, i64 8
  store ptr %.0, ptr %.sroa.4.0..sroa_idx, align 8, !tbaa !20
  ret void
}